; Function Attrs: mustprogress uwtable
define void @_ZN7rocksdb32GetBlockBasedTableOptionsFromMapERKNS_13ConfigOptionsERKNS_22BlockBasedTableOptionsERKSt13unordered_mapINSt7__cxx1112basic_stringIcSt11char_traitsIcESaIcEEESC_St4hashISC_ESt8equal_toISC_ESaISt4pairIKSC_SC_EEEPS3_(ptr noalias sret(%"class.rocksdb::Status") align 8 %agg.result, ptr noundef nonnull align 8 dereferenceable(80) %config_options, ptr noundef nonnull align 8 dereferenceable(248) %table_options, ptr noundef nonnull align 8 dereferenceable(56) %opts_map, ptr noundef %new_table_options) local_unnamed_addr #2 personality ptr @__gxx_personality_v0 {
entry:
  %bbtf = alloca %"class.rocksdb::BlockBasedTableFactory", align 8
  call void @_ZN7rocksdb22BlockBasedTableFactoryC1ERKNS_22BlockBasedTableOptionsE(ptr noundef nonnull align 8 dereferenceable(608) %bbtf, ptr noundef nonnull align 8 dereferenceable(248) %table_options)
  invoke void @_ZN7rocksdb12Configurable16ConfigureFromMapERKNS_13ConfigOptionsERKSt13unordered_mapINSt7__cxx1112basic_stringIcSt11char_traitsIcESaIcEEESA_St4hashISA_ESt8equal_toISA_ESaISt4pairIKSA_SA_EEE(ptr sret(%"class.rocksdb::Status") align 8 %agg.result, ptr noundef nonnull align 8 dereferenceable(32) %bbtf, ptr noundef nonnull align 8 dereferenceable(80) %config_options, ptr noundef nonnull align 8 dereferenceable(56) %opts_map)
          to label %invoke.cont2 unwind label %lpad

invoke.cont2:                                     ; preds = %entry
  %0 = load i8, ptr %agg.result, align 8
  %cmp.i = icmp eq i8 %0, 0
  br i1 %cmp.i, label %if.then, label %if.else.invoke

if.then:                                          ; preds = %invoke.cont2
  %call4 = invoke noundef ptr @_ZN7rocksdb12Configurable10GetOptionsINS_22BlockBasedTableOptionsEEEPT_v(ptr noundef nonnull align 8 dereferenceable(32) %bbtf)
          to label %if.else.invoke unwind label %lpad1

lpad:                                             ; preds = %entry
  %1 = landingpad { ptr, i32 }
          cleanup
  br label %ehcleanup

lpad1:                                            ; preds = %if.else.invoke, %if.then
  %2 = landingpad { ptr, i32 }
          cleanup
  %state_.i = getelementptr inbounds i8, ptr %agg.result, i64 8
  %3 = load ptr, ptr %state_.i, align 8
  %cmp.not.i.i = icmp eq ptr %3, null
  br i1 %cmp.not.i.i, label %_ZN7rocksdb6StatusD2Ev.exit, label %_ZNKSt14default_deleteIA_KcEclIS0_EENSt9enable_ifIXsr14is_convertibleIPA_T_PS1_EE5valueEvE4typeEPS5_.exit.i.i

_ZNKSt14default_deleteIA_KcEclIS0_EENSt9enable_ifIXsr14is_convertibleIPA_T_PS1_EE5valueEvE4typeEPS5_.exit.i.i: ; preds = %lpad1
  call void @_ZdaPv(ptr noundef nonnull %3) #21
  br label %_ZN7rocksdb6StatusD2Ev.exit

_ZN7rocksdb6StatusD2Ev.exit:                      ; preds = %lpad1, %_ZNKSt14default_deleteIA_KcEclIS0_EENSt9enable_ifIXsr14is_convertibleIPA_T_PS1_EE5valueEvE4typeEPS5_.exit.i.i
  store ptr null, ptr %state_.i, align 8
  br label %ehcleanup

if.else.invoke:                                   ; preds = %if.then, %invoke.cont2
  %4 = phi ptr [ %table_options, %invoke.cont2 ], [ %call4, %if.then ]
  %5 = invoke noundef nonnull align 8 dereferenceable(248) ptr @_ZN7rocksdb22BlockBasedTableOptionsaSERKS0_(ptr noundef nonnull align 8 dereferenceable(248) %new_table_options, ptr noundef nonnull align 8 dereferenceable(248) %4)
          to label %nrvo.skipdtor unwind label %lpad1

nrvo.skipdtor:                                    ; preds = %if.else.invoke
  call void @_ZN7rocksdb22BlockBasedTableFactoryD2Ev(ptr noundef nonnull align 8 dereferenceable(608) %bbtf) #25
  ret void

ehcleanup:                                        ; preds = %_ZN7rocksdb6StatusD2Ev.exit, %lpad
  %.pn = phi { ptr, i32 } [ %2, %_ZN7rocksdb6StatusD2Ev.exit ], [ %1, %lpad ]
  call void @_ZN7rocksdb22BlockBasedTableFactoryD2Ev(ptr noundef nonnull align 8 dereferenceable(608) %bbtf) #25
  resume { ptr, i32 } %.pn
}